target datalayout = "e-m:e-p270:32:32-p271:32:32-p272:64:64-i64:64-i128:128-f80:128-n8:16:32:64-S128"
target triple = "x86_64-pc-linux-gnu"

%"class.cvc5::internal::TypeNode" = type { ptr }
%"class.cvc5::internal::expr::NodeValue" = type { i64, i64, ptr, [0 x ptr] }

; Function Attrs: inlinehint mustprogress nounwind uwtable
define linkonce_odr hidden noundef i32 @_ZN4cvc58internal4expr9NodeValue11dKindToKindEj(i32 noundef %0) #5 comdat align 2 {
  %2 = alloca i32, align 4
  store i32 %0, ptr %2, align 4, !tbaa !47
  %3 = load i32, ptr %2, align 4, !tbaa !47
  %4 = icmp eq i32 %3, 1023
  br i1 %4, label %5, label %6

5:                                                ; preds = %1
  br label %8

6:                                                ; preds = %1
  %7 = load i32, ptr %2, align 4, !tbaa !47
  br label %8

8:                                                ; preds = %6, %5
  %9 = phi i32 [ -1, %5 ], [ %7, %6 ]
  ret i32 %9
}

; Function Attrs: mustprogress uwtable
define linkonce_odr hidden noundef i32 @_ZNK4cvc58internal4expr9NodeValue7getKindEv(ptr noundef nonnull align 8 dereferenceable(24) %0) #6 comdat align 2 {
  %2 = alloca ptr, align 8
  store ptr %0, ptr %2, align 8, !tbaa !4
  %3 = load ptr, ptr %2, align 8
  %4 = getelementptr inbounds nuw %"class.cvc5::internal::expr::NodeValue", ptr %3, i32 0, i32 1
  %5 = load i64, ptr %4, align 8
  %6 = and i64 %5, 1023
  %7 = trunc i64 %6 to i32
  %8 = call noundef i32 @_ZN4cvc58internal4expr9NodeValue11dKindToKindEj(i32 noundef %7)
  ret i32 %8
}

; Function Attrs: mustprogress uwtable
define linkonce_odr hidden void @_ZN4cvc58internal4expr9NodeValue3incEv(ptr noundef nonnull align 8 dereferenceable(24) %0) #6 comdat align 2 {
  %2 = alloca ptr, align 8
  store ptr %0, ptr %2, align 8, !tbaa !4
  %3 = load ptr, ptr %2, align 8
  %4 = load i64, ptr %3, align 8
  %5 = lshr i64 %4, 40
  %6 = and i64 %5, 1048575
  %7 = trunc i64 %6 to i32
  %8 = icmp ult i32 %7, 1048574
  %9 = zext i1 %8 to i64
  %10 = call i64 @llvm.expect.i64(i64 %9, i64 1)
  %11 = icmp ne i64 %10, 0
  br i1 %11, label %12, label %24

12:                                               ; preds = %1
  %13 = load i64, ptr %3, align 8
  %14 = lshr i64 %13, 40
  %15 = and i64 %14, 1048575
  %16 = trunc i64 %15 to i32
  %17 = add i32 %16, 1
  %18 = zext i32 %17 to i64
  %19 = load i64, ptr %3, align 8
  %20 = and i64 %18, 1048575
  %21 = shl i64 %20, 40
  %22 = and i64 %19, -1152920405095219201
  %23 = or i64 %22, %21
  store i64 %23, ptr %3, align 8
  br label %46

24:                                               ; preds = %1
  %25 = load i64, ptr %3, align 8
  %26 = lshr i64 %25, 40
  %27 = and i64 %26, 1048575
  %28 = trunc i64 %27 to i32
  %29 = icmp eq i32 %28, 1048574
  %30 = zext i1 %29 to i64
  %31 = call i64 @llvm.expect.i64(i64 %30, i64 0)
  %32 = icmp ne i64 %31, 0
  br i1 %32, label %33, label %45

33:                                               ; preds = %24
  %34 = load i64, ptr %3, align 8
  %35 = lshr i64 %34, 40
  %36 = and i64 %35, 1048575
  %37 = trunc i64 %36 to i32
  %38 = add i32 %37, 1
  %39 = zext i32 %38 to i64
  %40 = load i64, ptr %3, align 8
  %41 = and i64 %39, 1048575
  %42 = shl i64 %41, 40
  %43 = and i64 %40, -1152920405095219201
  %44 = or i64 %43, %42
  store i64 %44, ptr %3, align 8
  call void @_ZN4cvc58internal4expr9NodeValue20markRefCountMaxedOutEv(ptr noundef nonnull align 8 dereferenceable(24) %3)
  br label %45

45:                                               ; preds = %33, %24
  br label %46

46:                                               ; preds = %45, %12
  ret void
}

; Function Attrs: mustprogress uwtable
define linkonce_odr hidden noundef i32 @_ZNK4cvc58internal4expr9NodeValue11getMetaKindEv(ptr noundef nonnull align 8 dereferenceable(24) %0) #6 comdat align 2 {
  %2 = alloca ptr, align 8
  store ptr %0, ptr %2, align 8, !tbaa !4
  %3 = load ptr, ptr %2, align 8
  %4 = call noundef i32 @_ZNK4cvc58internal4expr9NodeValue7getKindEv(ptr noundef nonnull align 8 dereferenceable(24) %3)
  %5 = call noundef i32 @_ZN4cvc58internal4kind10metaKindOfENS1_6Kind_tE(i32 noundef %4)
  ret i32 %5
}

; Function Attrs: mustprogress uwtable
define linkonce_odr hidden void @_ZN4cvc58internal4expr9NodeValue3decEv(ptr noundef nonnull align 8 dereferenceable(24) %0) #6 comdat align 2 {
  %2 = alloca ptr, align 8
  store ptr %0, ptr %2, align 8, !tbaa !4
  %3 = load ptr, ptr %2, align 8
  %4 = load i64, ptr %3, align 8
  %5 = lshr i64 %4, 40
  %6 = and i64 %5, 1048575
  %7 = trunc i64 %6 to i32
  %8 = icmp ult i32 %7, 1048575
  %9 = zext i1 %8 to i64
  %10 = call i64 @llvm.expect.i64(i64 %9, i64 1)
  %11 = icmp ne i64 %10, 0
  br i1 %11, label %12, label %34

12:                                               ; preds = %1
  %13 = load i64, ptr %3, align 8
  %14 = lshr i64 %13, 40
  %15 = and i64 %14, 1048575
  %16 = trunc i64 %15 to i32
  %17 = add i32 %16, -1
  %18 = zext i32 %17 to i64
  %19 = load i64, ptr %3, align 8
  %20 = and i64 %18, 1048575
  %21 = shl i64 %20, 40
  %22 = and i64 %19, -1152920405095219201
  %23 = or i64 %22, %21
  store i64 %23, ptr %3, align 8
  %24 = load i64, ptr %3, align 8
  %25 = lshr i64 %24, 40
  %26 = and i64 %25, 1048575
  %27 = trunc i64 %26 to i32
  %28 = icmp eq i32 %27, 0
  %29 = zext i1 %28 to i64
  %30 = call i64 @llvm.expect.i64(i64 %29, i64 0)
  %31 = icmp ne i64 %30, 0
  br i1 %31, label %32, label %33

32:                                               ; preds = %12
  call void @_ZN4cvc58internal4expr9NodeValue15markForDeletionEv(ptr noundef nonnull align 8 dereferenceable(24) %3)
  br label %33

33:                                               ; preds = %32, %12
  br label %34

34:                                               ; preds = %33, %1
  ret void
}

; Function Attrs: inlinehint mustprogress uwtable
define linkonce_odr hidden void @_ZN4cvc58internal8TypeNodeC2EPKNS0_4expr9NodeValueE(ptr noundef nonnull align 8 dereferenceable(8) %0, ptr noundef %1) unnamed_addr #4 comdat align 2 {
  %3 = alloca ptr, align 8
  %4 = alloca ptr, align 8
  store ptr %0, ptr %3, align 8, !tbaa !9
  store ptr %1, ptr %4, align 8, !tbaa !4
  %5 = load ptr, ptr %3, align 8
  %6 = getelementptr inbounds nuw %"class.cvc5::internal::TypeNode", ptr %5, i32 0, i32 0
  %7 = load ptr, ptr %4, align 8, !tbaa !4
  store ptr %7, ptr %6, align 8, !tbaa !11
  %8 = getelementptr inbounds nuw %"class.cvc5::internal::TypeNode", ptr %5, i32 0, i32 0
  %9 = load ptr, ptr %8, align 8, !tbaa !11
  call void @_ZN4cvc58internal4expr9NodeValue3incEv(ptr noundef nonnull align 8 dereferenceable(24) %9)
  ret void
}

; Function Attrs: inlinehint mustprogress uwtable
define linkonce_odr hidden noundef ptr @_ZNK4cvc58internal4expr9NodeValue8getChildEi(ptr noundef nonnull align 8 dereferenceable(24) %0, i32 noundef %1) #4 comdat align 2 {
  %3 = alloca ptr, align 8
  %4 = alloca i32, align 4
  store ptr %0, ptr %3, align 8, !tbaa !4
  store i32 %1, ptr %4, align 4, !tbaa !47
  %5 = load ptr, ptr %3, align 8
  %6 = call noundef i32 @_ZNK4cvc58internal4expr9NodeValue11getMetaKindEv(ptr noundef nonnull align 8 dereferenceable(24) %5)
  %7 = icmp eq i32 %6, 2
  br i1 %7, label %8, label %11

8:                                                ; preds = %2
  %9 = load i32, ptr %4, align 4, !tbaa !47
  %10 = add nsw i32 %9, 1
  store i32 %10, ptr %4, align 4, !tbaa !47
  br label %11

11:                                               ; preds = %8, %2
  %12 = getelementptr inbounds nuw %"class.cvc5::internal::expr::NodeValue", ptr %5, i32 0, i32 3
  %13 = load i32, ptr %4, align 4, !tbaa !47
  %14 = sext i32 %13 to i64
  %15 = getelementptr inbounds [0 x ptr], ptr %12, i64 0, i64 %14
  %16 = load ptr, ptr %15, align 8, !tbaa !4
  ret ptr %16
}

; Function Attrs: inlinehint mustprogress nounwind uwtable
define linkonce_odr hidden void @_ZN4cvc58internal8TypeNodeD2Ev(ptr noundef nonnull align 8 dereferenceable(8) %0) unnamed_addr #5 comdat align 2 personality ptr @__gxx_personality_v0 {
  %2 = alloca ptr, align 8
  store ptr %0, ptr %2, align 8, !tbaa !9
  %3 = load ptr, ptr %2, align 8
  %4 = getelementptr inbounds nuw %"class.cvc5::internal::TypeNode", ptr %3, i32 0, i32 0
  %5 = load ptr, ptr %4, align 8, !tbaa !11
  invoke void @_ZN4cvc58internal4expr9NodeValue3decEv(ptr noundef nonnull align 8 dereferenceable(24) %5)
          to label %6 unwind label %7

6:                                                ; preds = %1
  ret void

7:                                                ; preds = %1
  %8 = landingpad { ptr, i32 }
          catch ptr null
  %9 = extractvalue { ptr, i32 } %8, 0
  call void @__clang_call_terminate(ptr %9) #21
  unreachable
}

; Function Attrs: inlinehint mustprogress uwtable
define linkonce_odr hidden void @_ZNK4cvc58internal8TypeNodeixEi(ptr dead_on_unwind noalias writable sret(%"class.cvc5::internal::TypeNode") align 8 %0, ptr noundef nonnull align 8 dereferenceable(8) %1, i32 noundef %2) #4 comdat align 2 {
  %4 = alloca ptr, align 8
  %5 = alloca ptr, align 8
  %6 = alloca i32, align 4
  store ptr %0, ptr %4, align 8
  store ptr %1, ptr %5, align 8, !tbaa !9
  store i32 %2, ptr %6, align 4, !tbaa !47
  %7 = load ptr, ptr %5, align 8
  %8 = getelementptr inbounds nuw %"class.cvc5::internal::TypeNode", ptr %7, i32 0, i32 0
  %9 = load ptr, ptr %8, align 8, !tbaa !11
  %10 = load i32, ptr %6, align 4, !tbaa !47
  %11 = call noundef ptr @_ZNK4cvc58internal4expr9NodeValue8getChildEi(ptr noundef nonnull align 8 dereferenceable(24) %9, i32 noundef %10)
  call void @_ZN4cvc58internal8TypeNodeC2EPKNS0_4expr9NodeValueE(ptr noundef nonnull align 8 dereferenceable(8) %0, ptr noundef %11)
  ret void
}

; Function Attrs: inlinehint mustprogress nounwind uwtable
define linkonce_odr hidden noundef i32 @_ZNK4cvc58internal8TypeNode7getKindEv(ptr noundef nonnull align 8 dereferenceable(8) %0) #5 comdat align 2 {
  %2 = alloca ptr, align 8
  store ptr %0, ptr %2, align 8, !tbaa !9
  %3 = load ptr, ptr %2, align 8
  %4 = getelementptr inbounds nuw %"class.cvc5::internal::TypeNode", ptr %3, i32 0, i32 0
  %5 = load ptr, ptr %4, align 8, !tbaa !11
  %6 = getelementptr inbounds nuw %"class.cvc5::internal::expr::NodeValue", ptr %5, i32 0, i32 1
  %7 = load i64, ptr %6, align 8
  %8 = and i64 %7, 1023
  %9 = trunc i64 %8 to i32
  ret i32 %9
}

; Function Attrs: mustprogress uwtable
define noundef zeroext i1 @_ZNK4cvc58internal8TypeNode10isRelationEv(ptr noundef nonnull align 8 dereferenceable(8) %0) #6 align 2 personality ptr @__gxx_personality_v0 {
  %2 = alloca i1, align 1
  %3 = alloca ptr, align 8
  %4 = alloca %"class.cvc5::internal::TypeNode", align 8
  %5 = alloca i1, align 1
  %6 = alloca i1, align 1
  %7 = alloca ptr, align 8
  %8 = alloca i32, align 4
  store ptr %0, ptr %3, align 8, !tbaa !9
  %9 = load ptr, ptr %3, align 8
  %10 = call noundef i32 @_ZNK4cvc58internal8TypeNode7getKindEv(ptr noundef nonnull align 8 dereferenceable(8) %9)
  %11 = icmp eq i32 %10, 253
  store i1 false, ptr %5, align 1
  store i1 false, ptr %6, align 1
  br i1 %11, label %12, label %16

12:                                               ; preds = %1
  call void @llvm.lifetime.start.p0(i64 8, ptr %4) #3
  store i1 true, ptr %5, align 1
  call void @_ZNK4cvc58internal8TypeNodeixEi(ptr dead_on_unwind writable sret(%"class.cvc5::internal::TypeNode") align 8 %4, ptr noundef nonnull align 8 dereferenceable(8) %9, i32 noundef 0)
  store i1 true, ptr %6, align 1
  %13 = invoke noundef i32 @_ZNK4cvc58internal8TypeNode7getKindEv(ptr noundef nonnull align 8 dereferenceable(8) %4)
          to label %14 unwind label %25

14:                                               ; preds = %12
  %15 = icmp eq i32 %13, 230
  br label %16

16:                                               ; preds = %14, %1
  %17 = phi i1 [ false, %1 ], [ %15, %14 ]
  store i1 %17, ptr %2, align 1
  %18 = load i1, ptr %6, align 1
  br i1 %18, label %19, label %20

19:                                               ; preds = %16
  call void @_ZN4cvc58internal8TypeNodeD2Ev(ptr noundef nonnull align 8 dereferenceable(8) %4) #3
  br label %20

20:                                               ; preds = %19, %16
  %21 = load i1, ptr %5, align 1
  br i1 %21, label %22, label %23

22:                                               ; preds = %20
  call void @llvm.lifetime.end.p0(i64 8, ptr %4) #3
  br label %23

23:                                               ; preds = %22, %20
  %24 = load i1, ptr %2, align 1
  ret i1 %24

25:                                               ; preds = %12
  %26 = landingpad { ptr, i32 }
          cleanup
  %27 = extractvalue { ptr, i32 } %26, 0
  store ptr %27, ptr %7, align 8
  %28 = extractvalue { ptr, i32 } %26, 1
  store i32 %28, ptr %8, align 4
  %29 = load i1, ptr %6, align 1
  br i1 %29, label %30, label %31

30:                                               ; preds = %25
  call void @_ZN4cvc58internal8TypeNodeD2Ev(ptr noundef nonnull align 8 dereferenceable(8) %4) #3
  br label %31

31:                                               ; preds = %30, %25
  %32 = load i1, ptr %5, align 1
  br i1 %32, label %33, label %34

33:                                               ; preds = %31
  call void @llvm.lifetime.end.p0(i64 8, ptr %4) #3
  br label %34

34:                                               ; preds = %33, %31
  br label %35

35:                                               ; preds = %34
  %36 = load ptr, ptr %7, align 8
  %37 = load i32, ptr %8, align 4
  %38 = insertvalue { ptr, i32 } poison, ptr %36, 0
  %39 = insertvalue { ptr, i32 } %38, i32 %37, 1
  resume { ptr, i32 } %39
}