; Function Attrs: mustprogress uwtable
define noundef zeroext i1 @_ZNK4cvc58internal8TypeNode10isRelationEv(ptr noundef nonnull readonly align 8 captures(none) dereferenceable(8) %0) local_unnamed_addr #4 align 2 personality ptr @__gxx_personality_v0 {
  %2 = load ptr, ptr %0, align 8, !tbaa !3
  %3 = getelementptr inbounds nuw i8, ptr %2, i64 8
  %4 = load i64, ptr %3, align 8
  %5 = and i64 %4, 1023
  %6 = icmp eq i64 %5, 253
  br i1 %6, label %7, label %.critedge

7:                                                ; preds = %1
  %8 = tail call noundef i32 @_ZN4cvc58internal4kind10metaKindOfENS1_6Kind_tE(i32 noundef 253), !noalias !291
  %9 = icmp eq i32 %8, 2
  %10 = getelementptr inbounds nuw i8, ptr %2, i64 24
  %11 = zext i1 %9 to i64
  %12 = getelementptr inbounds nuw [0 x ptr], ptr %10, i64 0, i64 %11
  %13 = load ptr, ptr %12, align 8, !tbaa !32, !noalias !291
  %14 = load i64, ptr %13, align 8, !noalias !291
  %15 = lshr i64 %14, 40
  %16 = trunc nuw nsw i64 %15 to i32
  %17 = and i32 %16, 1048575
  %18 = icmp samesign ult i32 %17, 1048574
  br i1 %18, label %19, label %24, !prof !27

19:                                               ; preds = %7
  %20 = add i64 %14, 1099511627776
  %21 = and i64 %20, 1152920405095219200
  %22 = and i64 %14, -1152920405095219201
  %23 = or disjoint i64 %21, %22
  store i64 %23, ptr %13, align 8, !noalias !291
  br label %28

24:                                               ; preds = %7
  %25 = icmp eq i32 %17, 1048574
  br i1 %25, label %26, label %28, !prof !9

26:                                               ; preds = %24
  %27 = or i64 %14, 1152920405095219200
  store i64 %27, ptr %13, align 8, !noalias !291
  tail call void @_ZN4cvc58internal4expr9NodeValue20markRefCountMaxedOutEv(ptr noundef nonnull align 8 dereferenceable(24) %13), !noalias !291
  %.pre = load i64, ptr %13, align 8
  br label %28

28:                                               ; preds = %26, %24, %19
  %29 = phi i64 [ %.pre, %26 ], [ %14, %24 ], [ %23, %19 ]
  %30 = getelementptr inbounds nuw i8, ptr %13, i64 8
  %31 = load i64, ptr %30, align 8
  %32 = and i64 %31, 1023
  %33 = icmp eq i64 %32, 230
  %34 = and i64 %29, 1152920405095219200
  %.not.i.i = icmp eq i64 %34, 1152920405095219200
  br i1 %.not.i.i, label %.critedge, label %35, !prof !9

35:                                               ; preds = %28
  %36 = add i64 %29, 1152920405095219200
  %37 = and i64 %36, 1152920405095219200
  %38 = and i64 %29, -1152920405095219201
  %39 = or disjoint i64 %37, %38
  store i64 %39, ptr %13, align 8
  %40 = icmp eq i64 %37, 0
  br i1 %40, label %41, label %.critedge, !prof !9

41:                                               ; preds = %35
  invoke void @_ZN4cvc58internal4expr9NodeValue15markForDeletionEv(ptr noundef nonnull align 8 dereferenceable(24) %13)
          to label %.critedge unwind label %42

42:                                               ; preds = %41
  %43 = landingpad { ptr, i32 }
          catch ptr null
  %44 = extractvalue { ptr, i32 } %43, 0
  tail call void @__clang_call_terminate(ptr %44) #23
  unreachable

.critedge:                                        ; preds = %41, %35, %28, %1
  %45 = phi i1 [ false, %1 ], [ %33, %28 ], [ %33, %35 ], [ %33, %41 ]
  ret i1 %45
}